"File: ADC.c         Assembler  Version HGASM0202      Page 1


   1  0000              ; Generated by holtek-gcc v3.19, Wed Dec 02 18:31:26 2020
   2  0000              ; 
   3  0000              ; Configuration:
   4  0000              ;       without long instruction
   5  0000              ;       Single ROM, Multi-RAM
   6  0000              ;       bits_per_rom_unit:16
   7  0000              ;       with mp1
   8  0000              ;       with tbhp, address(0x9)
   9  0000              ;          Use tabrd-const
  10  0000              ;       
  11  0000              ;       
  12  0000              ;       
  13  0000              ; use 'tabrdc' instead of 'tabrd'
  14  0000              ;       
  15  0000              
  16  0000              #pragma translator "holtek-gcc 4.6.4" "3.19" "build 20130711"
  17  0000              ; Rebuild 718
  18  0000              
  19  0000              ir equ [2]
  20  0000              mp equ [3]
  21  0000              sbp equ [1]
  22  0000              acc equ [5]
  23  0000              bp equ [4]
  24  0000              tblp equ [7]
  25  0000              tbhp equ [9]
  26  0000              status equ [10]
  27  0000              c equ [10].0
  28  0000              ac equ [10].1
  29  0000              z equ [10].2
  30  0000              ov equ [10].3
  31  0000              intc equ [11]
  32  0000              
  33  0000              extern ra:byte
  34  0000              extern rb:byte
  35  0000              extern rc:byte
  36  0000              extern rd:byte
  37  0000              extern re:byte
  38  0000              extern rf:byte
  39  0000              extern rg:byte
  40  0000              extern rh:byte
  41  0000              extern _Crom2Prom:near
  42  0000              extern _Crom2PromNext:near
  43  0000              
  44  0000              RAMBANK 0 @HCCINIT, @HCCINIT0
  45  0000              
  46  0000              RAMBANK 0 @BITDATASEC, @BITDATASEC1
  47  0000              @HCCINIT	.section 'data'
  48  0000              @HCCINIT0	.section 'data'
  49  0000              @BITDATASEC	 .section 'data'
  50  0000              @BITDATASEC1	 .section 'data'
  51  0000              
  52  0000              #pragma debug scope 1 1
  53  0000              	extern __DELAY3:near
  54  0000              	extern __DELAYX3:near
  55  0000              	extern __DELAYX6:near
  56  0000              	extern __DELAYY5:near
  57  0000              	extern __DELAYY3:near
  58  0000              	extern _builtin_holtek_delay_2:byte
  59  0000              ___intc1 equ [15]
"File: ADC.ASM       Assembler  Version HGASM0202      Page 2

  60  0000              ___sadc0 equ [34]
  61  0000              ___sadc1 equ [35]
  62  0000              ___sadc2 equ [36]
  63  0000              ___acerl equ [67]
  64  0000              ___sadol equ [32]
  65  0000              ___sadoh equ [33]
  66  0000              public _Get_ADC
  67  0000              #pragma debug scope 2 1

  23  0000              #line 23 "C:\ChipsGarden\醇法\MK8000\MK8000-Power PCB\UART2ADCwith8bitsMCU\UART2ADCwith8bitsMCU\ADC.c"
  23  0000              _Get_ADC .section 'code'
  23  0000              _Get_ADC proc
  23  0000  00              local _Get_ADC_2 db 1 dup(?)	; 0,1
  23  0000  0080     R  	mov _Get_ADC_2[0],a
  23  0001              #pragma debug variable 8 2 _Get_ADC_2+0 "adc_channel"
  25  0001              #line 25 "C:\ChipsGarden\醇法\MK8000\MK8000-Power PCB\UART2ADCwith8bitsMCU\UART2ADCwith8bitsMCU\ADC.c"
  25  0001  350F        	clr [15].2
  26  0002              #line 26 "C:\ChipsGarden\醇法\MK8000\MK8000-Power PCB\UART2ADCwith8bitsMCU\UART2ADCwith8bitsMCU\ADC.c"
  26  0002  0F37        	mov a,55
  26  0003  00A2        	mov [34],a
  27  0004              #line 27 "C:\ChipsGarden\醇法\MK8000\MK8000-Power PCB\UART2ADCwith8bitsMCU\UART2ADCwith8bitsMCU\ADC.c"
  27  0004  0700     R  	mov a,_Get_ADC_2[0]
  27  0005  0A08        	sub a,8
  27  0006  390A        	snz z
  27  0007  2800     R  	jmp _L2
  29  0008              #line 29 "C:\ChipsGarden\醇法\MK8000\MK8000-Power PCB\UART2ADCwith8bitsMCU\UART2ADCwith8bitsMCU\ADC.c"
  29  0008  0F43        	mov a,67
  29  0009  00A3        	mov [35],a
  29  000A  2800     R  	jmp _L3
  29  000B              _L2:
  33  000B              #line 33 "C:\ChipsGarden\醇法\MK8000\MK8000-Power PCB\UART2ADCwith8bitsMCU\UART2ADCwith8bitsMCU\ADC.c"
  33  000B  0F03        	mov a,3
  33  000C  00A3        	mov [35],a
  33  000D              _L3:
  35  000D              #line 35 "C:\ChipsGarden\醇法\MK8000\MK8000-Power PCB\UART2ADCwith8bitsMCU\UART2ADCwith8bitsMCU\ADC.c"
  35  000D  1F24        	clr [36]
  38  000E              #line 38 "C:\ChipsGarden\醇法\MK8000\MK8000-Power PCB\UART2ADCwith8bitsMCU\UART2ADCwith8bitsMCU\ADC.c"
  38  000E  0F01        	mov a,1
  38  000F  00C3        	mov [67],a
  39  0010              #line 39 "C:\ChipsGarden\醇法\MK8000\MK8000-Power PCB\UART2ADCwith8bitsMCU\UART2ADCwith8bitsMCU\ADC.c"
  39  0010  0700     R  	mov a,_Get_ADC_2[0]
  39  0011  0A00        	sub a,0
  39  0012  3D0A        	sz z
  39  0013  2800     R  	jmp _L5
  39  0014  0A01        	sub a,(1)-(0)
  39  0015  3D0A        	sz z
  39  0016  2800     R  	jmp _L6
  39  0017  0700     R  	mov a,_Get_ADC_2[0]
  39  0018  0A02        	sub a,2
  39  0019  3D0A        	sz z
  39  001A  2800     R  	jmp _L7
  39  001B  0A01        	sub a,(3)-(2)
  39  001C  3D0A        	sz z
  39  001D  2800     R  	jmp _L8
  39  001E  0700     R  	mov a,_Get_ADC_2[0]
  39  001F  0A04        	sub a,4
  39  0020  3D0A        	sz z
  39  0021  2800     R  	jmp _L9
  39  0022  0A01        	sub a,(5)-(4)
  39  0023  3D0A        	sz z
"File: ADC.c         Assembler  Version HGASM0202      Page 3

  39  0024  2800     R  	jmp _L10
  39  0025  0700     R  	mov a,_Get_ADC_2[0]
  39  0026  0A06        	sub a,6
  39  0027  390A        	snz z
  39  0028  2800     R  	jmp _L4
  47  0029              #line 47 "C:\ChipsGarden\醇法\MK8000\MK8000-Power PCB\UART2ADCwith8bitsMCU\UART2ADCwith8bitsMCU\ADC.c"
  47  0029  3422        	clr [34].0
  47  002A  2800     R  	jmp _L4
  47  002B              _L5:
  41  002B              #line 41 "C:\ChipsGarden\醇法\MK8000\MK8000-Power PCB\UART2ADCwith8bitsMCU\UART2ADCwith8bitsMCU\ADC.c"
  41  002B  0FF8        	mov a,248
  41  002C  06A2        	andm a,[34]
  41  002D  2800     R  	jmp _L4
  41  002E              _L6:
  42  002E              #line 42 "C:\ChipsGarden\醇法\MK8000\MK8000-Power PCB\UART2ADCwith8bitsMCU\UART2ADCwith8bitsMCU\ADC.c"
  42  002E  0FF9        	mov a,249
  42  002F  06A2        	andm a,[34]
  42  0030  2800     R  	jmp _L4
  42  0031              _L7:
  43  0031              #line 43 "C:\ChipsGarden\醇法\MK8000\MK8000-Power PCB\UART2ADCwith8bitsMCU\UART2ADCwith8bitsMCU\ADC.c"
  43  0031  0FFA        	mov a,250
  43  0032  06A2        	andm a,[34]
  43  0033  2800     R  	jmp _L4
  43  0034              _L8:
  44  0034              #line 44 "C:\ChipsGarden\醇法\MK8000\MK8000-Power PCB\UART2ADCwith8bitsMCU\UART2ADCwith8bitsMCU\ADC.c"
  44  0034  3522        	clr [34].2
  44  0035  2800     R  	jmp _L4
  44  0036              _L9:
  45  0036              #line 45 "C:\ChipsGarden\醇法\MK8000\MK8000-Power PCB\UART2ADCwith8bitsMCU\UART2ADCwith8bitsMCU\ADC.c"
  45  0036  0FFC        	mov a,252
  45  0037  06A2        	andm a,[34]
  45  0038  2800     R  	jmp _L4
  45  0039              _L10:
  46  0039              #line 46 "C:\ChipsGarden\醇法\MK8000\MK8000-Power PCB\UART2ADCwith8bitsMCU\UART2ADCwith8bitsMCU\ADC.c"
  46  0039  34A2        	clr [34].1
  46  003A              _L4:
  50  003A              #line 50 "C:\ChipsGarden\醇法\MK8000\MK8000-Power PCB\UART2ADCwith8bitsMCU\UART2ADCwith8bitsMCU\ADC.c"
  50  003A  32A2        	set [34].5
  52  003B              #line 52 "C:\ChipsGarden\醇法\MK8000\MK8000-Power PCB\UART2ADCwith8bitsMCU\UART2ADCwith8bitsMCU\ADC.c"
  52  003B              ;# 52 "C:\ChipsGarden\醇法\MK8000\MK8000-Power PCB\UART2ADCwith8bitsMCU\UART2ADCwith8bitsMCU\ADC.c" 1
  52  003B              	IF 20>263690
  52  003B              ;# 52 "C:\ChipsGarden\醇法\MK8000\MK8000-Power PCB\UART2ADCwith8bitsMCU\UART2ADCwith8bitsMCU\ADC.c" 1
  52  003B              	ERRMESSAGE 'the value 20of the argument exceeds the maxinum 263690'
  52  003B              	ENDIF
  52  003B              ;# 52 "C:\ChipsGarden\醇法\MK8000\MK8000-Power PCB\UART2ADCwith8bitsMCU\UART2ADCwith8bitsMCU\ADC.c" 1
  52  003B              	IF 20<0
  52  003B              ;# 52 "C:\ChipsGarden\醇法\MK8000\MK8000-Power PCB\UART2ADCwith8bitsMCU\UART2ADCwith8bitsMCU\ADC.c" 1
  52  003B              	ERRMESSAGE 'the value 20 of the argument exceeds the mininum 0'
  52  003B              	ENDIF
  52  003B              ;# 52 "C:\ChipsGarden\醇法\MK8000\MK8000-Power PCB\UART2ADCwith8bitsMCU\UART2ADCwith8bitsMCU\ADC.c" 1
  52  003B              	IF 20==0
  52  003B              ;# 52 "C:\ChipsGarden\醇法\MK8000\MK8000-Power PCB\UART2ADCwith8bitsMCU\UART2ADCwith8bitsMCU\ADC.c" 1
  52  003B              	JMP $
  52  003B              	ENDIF
  52  003B              ;# 52 "C:\ChipsGarden\醇法\MK8000\MK8000-Power PCB\UART2ADCwith8bitsMCU\UART2ADCwith8bitsMCU\ADC.c" 1
  52  003B              	IF 20==1
  52  003B              ;# 52 "C:\ChipsGarden\醇法\MK8000\MK8000-Power PCB\UART2ADCwith8bitsMCU\UART2ADCwith8bitsMCU\ADC.c" 1
  52  003B              	NOP
  52  003B              	ENDIF
  52  003B              ;# 52 "C:\ChipsGarden\醇法\MK8000\MK8000-Power PCB\UART2ADCwith8bitsMCU\UART2ADCwith8bitsMCU\ADC.c" 1
"File: ADC.c         Assembler  Version HGASM0202      Page 4

  52  003B              	IF 20==2
  52  003B              ;# 52 "C:\ChipsGarden\醇法\MK8000\MK8000-Power PCB\UART2ADCwith8bitsMCU\UART2ADCwith8bitsMCU\ADC.c" 1
  52  003B              	NOP
  52  003B              ;# 52 "C:\ChipsGarden\醇法\MK8000\MK8000-Power PCB\UART2ADCwith8bitsMCU\UART2ADCwith8bitsMCU\ADC.c" 1
  52  003B              	NOP
  52  003B              	ENDIF
  52  003B              ;# 52 "C:\ChipsGarden\醇法\MK8000\MK8000-Power PCB\UART2ADCwith8bitsMCU\UART2ADCwith8bitsMCU\ADC.c" 1
  52  003B              	IF 20==3
  52  003B              ;# 52 "C:\ChipsGarden\醇法\MK8000\MK8000-Power PCB\UART2ADCwith8bitsMCU\UART2ADCwith8bitsMCU\ADC.c" 1
  52  003B              	NOP
  52  003B              ;# 52 "C:\ChipsGarden\醇法\MK8000\MK8000-Power PCB\UART2ADCwith8bitsMCU\UART2ADCwith8bitsMCU\ADC.c" 1
  52  003B              	NOP
  52  003B              ;# 52 "C:\ChipsGarden\醇法\MK8000\MK8000-Power PCB\UART2ADCwith8bitsMCU\UART2ADCwith8bitsMCU\ADC.c" 1
  52  003B              	NOP
  52  003B              	ENDIF
  52  003B              ;# 52 "C:\ChipsGarden\醇法\MK8000\MK8000-Power PCB\UART2ADCwith8bitsMCU\UART2ADCwith8bitsMCU\ADC.c" 1
  52  003B              	IF (20<8) AND (20>3)
  52  003B              ;# 52 "C:\ChipsGarden\醇法\MK8000\MK8000-Power PCB\UART2ADCwith8bitsMCU\UART2ADCwith8bitsMCU\ADC.c" 1
  52  003B              	CALL __DELAY3 + 7 -20
  52  003B              	ENDIF
  52  003B              ;# 52 "C:\ChipsGarden\醇法\MK8000\MK8000-Power PCB\UART2ADCwith8bitsMCU\UART2ADCwith8bitsMCU\ADC.c" 1
  52  003B              	IF (20< 0404h) AND (20>7)
  52  003B              ;# 52 "C:\ChipsGarden\醇法\MK8000\MK8000-Power PCB\UART2ADCwith8bitsMCU\UART2ADCwith8bitsMCU\ADC.c" 1
  52  003B  0F04        	MOV A,20/4-1
  52  003C              ;# 52 "C:\ChipsGarden\醇法\MK8000\MK8000-Power PCB\UART2ADCwith8bitsMCU\UART2ADCwith8bitsMCU\ADC.c" 1
  52  003C  2000     E  	CALL __DELAYX3 + 3 -(20 MOD 4)
  52  003D              	ENDIF
  52  003D              ;# 52 "C:\ChipsGarden\醇法\MK8000\MK8000-Power PCB\UART2ADCwith8bitsMCU\UART2ADCwith8bitsMCU\ADC.c" 1
  52  003D              	IF (20< 0x40B) AND (20> 0403h)
  52  003D              ;# 52 "C:\ChipsGarden\醇法\MK8000\MK8000-Power PCB\UART2ADCwith8bitsMCU\UART2ADCwith8bitsMCU\ADC.c" 1
  52  003D              	MOV A,0 
  52  003D              ;# 52 "C:\ChipsGarden\醇法\MK8000\MK8000-Power PCB\UART2ADCwith8bitsMCU\UART2ADCwith8bitsMCU\ADC.c" 1
  52  003D              	CALL __DELAYX6 + 0x40a -20
  52  003D              	ENDIF
  52  003D              ;# 52 "C:\ChipsGarden\醇法\MK8000\MK8000-Power PCB\UART2ADCwith8bitsMCU\UART2ADCwith8bitsMCU\ADC.c" 1
  52  003D              	IF (20 >= 0x40b) AND ((((20-9)%0402h)/4+1)>256)
  52  003D              ;# 52 "C:\ChipsGarden\醇法\MK8000\MK8000-Power PCB\UART2ADCwith8bitsMCU\UART2ADCwith8bitsMCU\ADC.c" 1
  52  003D              	MOV A,(20-9)/0402h
  52  003D              ;# 52 "C:\ChipsGarden\醇法\MK8000\MK8000-Power PCB\UART2ADCwith8bitsMCU\UART2ADCwith8bitsMCU\ADC.c" 1
  52  003D              	MOV _builtin_holtek_delay_2,A
  52  003D              ;# 52 "C:\ChipsGarden\醇法\MK8000\MK8000-Power PCB\UART2ADCwith8bitsMCU\UART2ADCwith8bitsMCU\ADC.c" 1
  52  003D              	MOV A,0
  52  003D              ;# 52 "C:\ChipsGarden\醇法\MK8000\MK8000-Power PCB\UART2ADCwith8bitsMCU\UART2ADCwith8bitsMCU\ADC.c" 1
  52  003D              	CALL __DELAYY5 +5- (((20-9)%0402h)%6)
  52  003D              	ENDIF
  52  003D              ;# 52 "C:\ChipsGarden\醇法\MK8000\MK8000-Power PCB\UART2ADCwith8bitsMCU\UART2ADCwith8bitsMCU\ADC.c" 1
  52  003D              	IF (20 >= 0x40b) AND ((((20-9)%0402h)/4+1)<=256)
  52  003D              ;# 52 "C:\ChipsGarden\醇法\MK8000\MK8000-Power PCB\UART2ADCwith8bitsMCU\UART2ADCwith8bitsMCU\ADC.c" 1
  52  003D              	MOV A,(20-9)/0402h
  52  003D              ;# 52 "C:\ChipsGarden\醇法\MK8000\MK8000-Power PCB\UART2ADCwith8bitsMCU\UART2ADCwith8bitsMCU\ADC.c" 1
  52  003D              	MOV _builtin_holtek_delay_2,A
  52  003D              ;# 52 "C:\ChipsGarden\醇法\MK8000\MK8000-Power PCB\UART2ADCwith8bitsMCU\UART2ADCwith8bitsMCU\ADC.c" 1
  52  003D              	MOV A,((20-9)%0402h)/4+1
  52  003D              ;# 52 "C:\ChipsGarden\醇法\MK8000\MK8000-Power PCB\UART2ADCwith8bitsMCU\UART2ADCwith8bitsMCU\ADC.c" 1
  52  003D              	CALL __DELAYY3 +3-(((20-9)%0402h)%4)
  52  003D              	ENDIF
  53  003D              #line 53 "C:\ChipsGarden\醇法\MK8000\MK8000-Power PCB\UART2ADCwith8bitsMCU\UART2ADCwith8bitsMCU\ADC.c"
  53  003D  37A2        	clr [34].7
  54  003E              #line 54 "C:\ChipsGarden\醇法\MK8000\MK8000-Power PCB\UART2ADCwith8bitsMCU\UART2ADCwith8bitsMCU\ADC.c"
  54  003E  33A2        	set [34].7
"File: ADC.c         Assembler  Version HGASM0202      Page 5

  55  003F              #line 55 "C:\ChipsGarden\醇法\MK8000\MK8000-Power PCB\UART2ADCwith8bitsMCU\UART2ADCwith8bitsMCU\ADC.c"
  55  003F  37A2        	clr [34].7
  55  0040              _L14:
  57  0040              #line 57 "C:\ChipsGarden\醇法\MK8000\MK8000-Power PCB\UART2ADCwith8bitsMCU\UART2ADCwith8bitsMCU\ADC.c"
  57  0040  3F22        	sz [34].6
  57  0041  2800     R  	jmp _L14
  64  0042              #line 64 "C:\ChipsGarden\醇法\MK8000\MK8000-Power PCB\UART2ADCwith8bitsMCU\UART2ADCwith8bitsMCU\ADC.c"
  64  0042  0720        	mov a,[32]
  64  0043  0080     E  	mov ra,a
  64  0044  0721        	mov a,[33]
  64  0045  0080     E  	mov rb,a
  64  0046  0003        	ret
  64  0047              _Get_ADC endp
  64  0047              #line 64 "C:\ChipsGarden\醇法\MK8000\MK8000-Power PCB\UART2ADCwith8bitsMCU\UART2ADCwith8bitsMCU\ADC.c"
  64  0047              #pragma debug scope 1 1
  64  0047              public _Disable_ADC
  64  0047              #pragma debug scope 3 1
  72  0047              #line 72 "C:\ChipsGarden\醇法\MK8000\MK8000-Power PCB\UART2ADCwith8bitsMCU\UART2ADCwith8bitsMCU\ADC.c"
  72  0000              _Disable_ADC .section 'code'
  72  0000              _Disable_ADC proc
  73  0000              #line 73 "C:\ChipsGarden\醇法\MK8000\MK8000-Power PCB\UART2ADCwith8bitsMCU\UART2ADCwith8bitsMCU\ADC.c"
  73  0000  36A2        	clr [34].5
  73  0001  0003        	ret
  73  0002              _Disable_ADC endp
  73  0002              #line 73 "C:\ChipsGarden\醇法\MK8000\MK8000-Power PCB\UART2ADCwith8bitsMCU\UART2ADCwith8bitsMCU\ADC.c"
  73  0002              #pragma debug scope 1 1
  73  0002              public _TEST_ADC
  73  0002              #pragma debug scope 4 1
  83  0002              #line 83 "C:\ChipsGarden\醇法\MK8000\MK8000-Power PCB\UART2ADCwith8bitsMCU\UART2ADCwith8bitsMCU\ADC.c"
  83  0000              _TEST_ADC .section 'code'
  83  0000              _TEST_ADC proc
  83  0000              _L18:
  87  0000              #line 87 "C:\ChipsGarden\醇法\MK8000\MK8000-Power PCB\UART2ADCwith8bitsMCU\UART2ADCwith8bitsMCU\ADC.c"
  87  0000              ;# 87 "C:\ChipsGarden\醇法\MK8000\MK8000-Power PCB\UART2ADCwith8bitsMCU\UART2ADCwith8bitsMCU\ADC.c" 1
  87  0000  0001        	clr wdt
  88  0001              #line 88 "C:\ChipsGarden\醇法\MK8000\MK8000-Power PCB\UART2ADCwith8bitsMCU\UART2ADCwith8bitsMCU\ADC.c"
  88  0001  0F00        	mov a,0
  88  0002  2000     R  	call _Get_ADC
  88  0003  2800     R  	jmp _L18
  88  0004  0003        	ret
  88  0005              _TEST_ADC endp
  88  0005              #line 88 "C:\ChipsGarden\醇法\MK8000\MK8000-Power PCB\UART2ADCwith8bitsMCU\UART2ADCwith8bitsMCU\ADC.c"
  88  0005              #pragma debug scope 1 1
  88  0005              #pragma debug struct_end
  88  0005              #pragma debug struct_end
  88  0005              #pragma debug union_end
  88  0005              #pragma debug union_end
  88  0005              #pragma debug variable 43 1 ___intc1 "__intc1" 1
  88  0005              #pragma debug variable 8 1 ___sadol "__sadol" 1
  88  0005              #pragma debug variable 8 1 ___sadoh "__sadoh" 1
  88  0005              #pragma debug struct_end
  88  0005              #pragma debug struct_end
  88  0005              #pragma debug union_end
  88  0005              #pragma debug union_end
  88  0005              #pragma debug variable 45 1 ___sadc0 "__sadc0" 1
  88  0005              #pragma debug struct_end
  88  0005              #pragma debug struct_end
  88  0005              #pragma debug union_end
  88  0005              #pragma debug union_end
  88  0005              #pragma debug variable 47 1 ___sadc1 "__sadc1" 1
"File: ADC.c         Assembler  Version HGASM0202      Page 6

  88  0005              #pragma debug struct_end
  88  0005              #pragma debug struct_end
  88  0005              #pragma debug union_end
  88  0005              #pragma debug union_end
  88  0005              #pragma debug variable 49 1 ___sadc2 "__sadc2" 1
  88  0005              #pragma debug struct_end
  88  0005              #pragma debug struct_end
  88  0005              #pragma debug union_end
  88  0005              #pragma debug union_end
  88  0005              #pragma debug variable 51 1 ___acerl "__acerl" 1
  88  0005              
  88  0005              ; 
  88  0005              ; Generated by holtek-gcc v3.19, Wed Dec 02 18:31:26 2020
  88  0005              ; Rebuild 718
  88  0005              ; end of file


        0 Errors, 0